; ModuleID = '28/1431.c'
source_filename = "28/1431.c"
target datalayout = "e-m:e-p270:32:32-p271:32:32-p272:64:64-i64:64-f80:128-n8:16:32:64-S128"
target triple = "x86_64-pc-linux-gnu"

@.str = private unnamed_addr constant [3 x i8] c"%d\00", align 1
@.str.1 = private unnamed_addr constant [4 x i8] c"%d,\00", align 1

; Function Attrs: noinline nounwind uwtable
define dso_local i32 @main() #0 {
  %1 = alloca i32, align 4
  %2 = alloca [30000 x i8], align 16
  %3 = alloca i32, align 4
  %4 = alloca i32, align 4
  %5 = alloca i32, align 4
  %6 = alloca i32, align 4
  %7 = alloca [300 x i32], align 16
  %8 = alloca [300 x i32], align 16
  %9 = alloca i32, align 4
  store i32 0, i32* %1, align 4
  %10 = getelementptr inbounds [30000 x i8], [30000 x i8]* %2, i64 0, i64 0
  %11 = call i32 (i8*, ...) bitcast (i32 (...)* @gets to i32 (i8*, ...)*)(i8* %10)
  %12 = getelementptr inbounds [30000 x i8], [30000 x i8]* %2, i64 0, i64 0
  %13 = call i64 @strlen(i8* %12) #3
  %14 = trunc i64 %13 to i32
  store i32 %14, i32* %3, align 4
  %15 = getelementptr inbounds [300 x i32], [300 x i32]* %7, i64 0, i64 0
  store i32 0, i32* %15, align 16
  store i32 0, i32* %4, align 4
  store i32 1, i32* %6, align 4
  br label %16

16:                                               ; preds = %35, %0
  %17 = load i32, i32* %4, align 4
  %18 = load i32, i32* %3, align 4
  %19 = icmp slt i32 %17, %18
  br i1 %19, label %20, label %38

20:                                               ; preds = %16
  %21 = load i32, i32* %4, align 4
  %22 = sext i32 %21 to i64
  %23 = getelementptr inbounds [30000 x i8], [30000 x i8]* %2, i64 0, i64 %22
  %24 = load i8, i8* %23, align 1
  %25 = sext i8 %24 to i32
  %26 = icmp eq i32 %25, 32
  br i1 %26, label %27, label %34

27:                                               ; preds = %20
  %28 = load i32, i32* %4, align 4
  %29 = load i32, i32* %6, align 4
  %30 = sext i32 %29 to i64
  %31 = getelementptr inbounds [300 x i32], [300 x i32]* %7, i64 0, i64 %30
  store i32 %28, i32* %31, align 4
  %32 = load i32, i32* %6, align 4
  %33 = add nsw i32 %32, 1
  store i32 %33, i32* %6, align 4
  br label %34

34:                                               ; preds = %27, %20
  br label %35

35:                                               ; preds = %34
  %36 = load i32, i32* %4, align 4
  %37 = add nsw i32 %36, 1
  store i32 %37, i32* %4, align 4
  br label %16

38:                                               ; preds = %16
  %39 = load i32, i32* %6, align 4
  %40 = icmp eq i32 %39, 1
  br i1 %40, label %41, label %44

41:                                               ; preds = %38
  %42 = load i32, i32* %3, align 4
  %43 = call i32 (i8*, ...) @printf(i8* getelementptr inbounds ([3 x i8], [3 x i8]* @.str, i64 0, i64 0), i32 %42)
  br label %145

44:                                               ; preds = %38
  store i32 0, i32* %4, align 4
  br label %45

45:                                               ; preds = %108, %44
  %46 = load i32, i32* %4, align 4
  %47 = load i32, i32* %6, align 4
  %48 = icmp slt i32 %46, %47
  br i1 %48, label %49, label %111

49:                                               ; preds = %45
  %50 = load i32, i32* %4, align 4
  %51 = icmp eq i32 %50, 0
  br i1 %51, label %52, label %66

52:                                               ; preds = %49
  %53 = load i32, i32* %4, align 4
  %54 = add nsw i32 %53, 1
  %55 = sext i32 %54 to i64
  %56 = getelementptr inbounds [300 x i32], [300 x i32]* %7, i64 0, i64 %55
  %57 = load i32, i32* %56, align 4
  %58 = load i32, i32* %4, align 4
  %59 = sext i32 %58 to i64
  %60 = getelementptr inbounds [300 x i32], [300 x i32]* %7, i64 0, i64 %59
  %61 = load i32, i32* %60, align 4
  %62 = sub nsw i32 %57, %61
  %63 = load i32, i32* %4, align 4
  %64 = sext i32 %63 to i64
  %65 = getelementptr inbounds [300 x i32], [300 x i32]* %8, i64 0, i64 %64
  store i32 %62, i32* %65, align 4
  br label %107

66:                                               ; preds = %49
  %67 = load i32, i32* %4, align 4
  %68 = load i32, i32* %6, align 4
  %69 = sub nsw i32 %68, 1
  %70 = icmp eq i32 %67, %69
  br i1 %70, label %71, label %82

71:                                               ; preds = %66
  %72 = load i32, i32* %3, align 4
  %73 = load i32, i32* %4, align 4
  %74 = sext i32 %73 to i64
  %75 = getelementptr inbounds [300 x i32], [300 x i32]* %7, i64 0, i64 %74
  %76 = load i32, i32* %75, align 4
  %77 = sub nsw i32 %72, %76
  %78 = sub nsw i32 %77, 1
  %79 = load i32, i32* %4, align 4
  %80 = sext i32 %79 to i64
  %81 = getelementptr inbounds [300 x i32], [300 x i32]* %8, i64 0, i64 %80
  store i32 %78, i32* %81, align 4
  br label %106

82:                                               ; preds = %66
  %83 = load i32, i32* %4, align 4
  %84 = icmp ne i32 %83, 0
  br i1 %84, label %85, label %105

85:                                               ; preds = %82
  %86 = load i32, i32* %4, align 4
  %87 = load i32, i32* %6, align 4
  %88 = sub nsw i32 %87, 1
  %89 = icmp ne i32 %86, %88
  br i1 %89, label %90, label %105

90:                                               ; preds = %85
  %91 = load i32, i32* %4, align 4
  %92 = add nsw i32 %91, 1
  %93 = sext i32 %92 to i64
  %94 = getelementptr inbounds [300 x i32], [300 x i32]* %7, i64 0, i64 %93
  %95 = load i32, i32* %94, align 4
  %96 = load i32, i32* %4, align 4
  %97 = sext i32 %96 to i64
  %98 = getelementptr inbounds [300 x i32], [300 x i32]* %7, i64 0, i64 %97
  %99 = load i32, i32* %98, align 4
  %100 = sub nsw i32 %95, %99
  %101 = sub nsw i32 %100, 1
  %102 = load i32, i32* %4, align 4
  %103 = sext i32 %102 to i64
  %104 = getelementptr inbounds [300 x i32], [300 x i32]* %8, i64 0, i64 %103
  store i32 %101, i32* %104, align 4
  br label %105

105:                                              ; preds = %90, %85, %82
  br label %106

106:                                              ; preds = %105, %71
  br label %107

107:                                              ; preds = %106, %52
  br label %108

108:                                              ; preds = %107
  %109 = load i32, i32* %4, align 4
  %110 = add nsw i32 %109, 1
  store i32 %110, i32* %4, align 4
  br label %45

111:                                              ; preds = %45
  store i32 0, i32* %4, align 4
  br label %112

112:                                              ; preds = %141, %111
  %113 = load i32, i32* %4, align 4
  %114 = load i32, i32* %6, align 4
  %115 = icmp slt i32 %113, %114
  br i1 %115, label %116, label %144

116:                                              ; preds = %112
  %117 = load i32, i32* %4, align 4
  %118 = sext i32 %117 to i64
  %119 = getelementptr inbounds [300 x i32], [300 x i32]* %8, i64 0, i64 %118
  %120 = load i32, i32* %119, align 4
  %121 = icmp ne i32 %120, 0
  br i1 %121, label %122, label %140

122:                                              ; preds = %116
  %123 = load i32, i32* %4, align 4
  %124 = load i32, i32* %6, align 4
  %125 = sub nsw i32 %124, 1
  %126 = icmp ne i32 %123, %125
  br i1 %126, label %127, label %133

127:                                              ; preds = %122
  %128 = load i32, i32* %4, align 4
  %129 = sext i32 %128 to i64
  %130 = getelementptr inbounds [300 x i32], [300 x i32]* %8, i64 0, i64 %129
  %131 = load i32, i32* %130, align 4
  %132 = call i32 (i8*, ...) @printf(i8* getelementptr inbounds ([4 x i8], [4 x i8]* @.str.1, i64 0, i64 0), i32 %131)
  br label %139

133:                                              ; preds = %122
  %134 = load i32, i32* %4, align 4
  %135 = sext i32 %134 to i64
  %136 = getelementptr inbounds [300 x i32], [300 x i32]* %8, i64 0, i64 %135
  %137 = load i32, i32* %136, align 4
  %138 = call i32 (i8*, ...) @printf(i8* getelementptr inbounds ([3 x i8], [3 x i8]* @.str, i64 0, i64 0), i32 %137)
  br label %139

139:                                              ; preds = %133, %127
  br label %140

140:                                              ; preds = %139, %116
  br label %141

141:                                              ; preds = %140
  %142 = load i32, i32* %4, align 4
  %143 = add nsw i32 %142, 1
  store i32 %143, i32* %4, align 4
  br label %112

144:                                              ; preds = %112
  br label %145

145:                                              ; preds = %144, %41
  ret i32 0
}

declare dso_local i32 @gets(...) #1

; Function Attrs: nounwind readonly
declare dso_local i64 @strlen(i8*) #2

declare dso_local i32 @printf(i8*, ...) #1


!llvm.module.flags = !{!0}
!llvm.ident = !{!1}

!0 = !{i32 1, !"wchar_size", i32 4}
!1 = !{!"clang version 10.0.0-4ubuntu1 "}
